target datalayout = "e-m:e-p270:32:32-p271:32:32-p272:64:64-i64:64-i128:128-f80:128-n8:16:32:64-S128"
target triple = "x86_64-pc-linux-gnu"

; Function Attrs: mustprogress uwtable
define internal void @_ZL33ImGui_ImplGlfw_UpdateKeyModifiersP10GLFWwindow(ptr noundef %0) #1 {
  %2 = alloca ptr, align 8
  %3 = alloca ptr, align 8
  store ptr %0, ptr %2, align 8, !tbaa !8
  call void @llvm.lifetime.start.p0(i64 8, ptr %3) #9
  %4 = call noundef nonnull align 8 dereferenceable(2944) ptr @_ZN5ImGui5GetIOEv()
  store ptr %4, ptr %3, align 8, !tbaa !20
  %5 = load ptr, ptr %3, align 8, !tbaa !20
  %6 = load ptr, ptr %2, align 8, !tbaa !8
  %7 = call i32 @glfwGetKey(ptr noundef %6, i32 noundef 341)
  %8 = icmp eq i32 %7, 1
  br i1 %8, label %13, label %9

9:                                                ; preds = %1
  %10 = load ptr, ptr %2, align 8, !tbaa !8
  %11 = call i32 @glfwGetKey(ptr noundef %10, i32 noundef 345)
  %12 = icmp eq i32 %11, 1
  br label %13

13:                                               ; preds = %9, %1
  %14 = phi i1 [ true, %1 ], [ %12, %9 ]
  call void @_ZN7ImGuiIO11AddKeyEventE8ImGuiKeyb(ptr noundef nonnull align 8 dereferenceable(2944) %5, i32 noundef 4096, i1 noundef zeroext %14)
  %15 = load ptr, ptr %3, align 8, !tbaa !20
  %16 = load ptr, ptr %2, align 8, !tbaa !8
  %17 = call i32 @glfwGetKey(ptr noundef %16, i32 noundef 340)
  %18 = icmp eq i32 %17, 1
  br i1 %18, label %23, label %19

19:                                               ; preds = %13
  %20 = load ptr, ptr %2, align 8, !tbaa !8
  %21 = call i32 @glfwGetKey(ptr noundef %20, i32 noundef 344)
  %22 = icmp eq i32 %21, 1
  br label %23

23:                                               ; preds = %19, %13
  %24 = phi i1 [ true, %13 ], [ %22, %19 ]
  call void @_ZN7ImGuiIO11AddKeyEventE8ImGuiKeyb(ptr noundef nonnull align 8 dereferenceable(2944) %15, i32 noundef 8192, i1 noundef zeroext %24)
  %25 = load ptr, ptr %3, align 8, !tbaa !20
  %26 = load ptr, ptr %2, align 8, !tbaa !8
  %27 = call i32 @glfwGetKey(ptr noundef %26, i32 noundef 342)
  %28 = icmp eq i32 %27, 1
  br i1 %28, label %33, label %29

29:                                               ; preds = %23
  %30 = load ptr, ptr %2, align 8, !tbaa !8
  %31 = call i32 @glfwGetKey(ptr noundef %30, i32 noundef 346)
  %32 = icmp eq i32 %31, 1
  br label %33

33:                                               ; preds = %29, %23
  %34 = phi i1 [ true, %23 ], [ %32, %29 ]
  call void @_ZN7ImGuiIO11AddKeyEventE8ImGuiKeyb(ptr noundef nonnull align 8 dereferenceable(2944) %25, i32 noundef 16384, i1 noundef zeroext %34)
  %35 = load ptr, ptr %3, align 8, !tbaa !20
  %36 = load ptr, ptr %2, align 8, !tbaa !8
  %37 = call i32 @glfwGetKey(ptr noundef %36, i32 noundef 343)
  %38 = icmp eq i32 %37, 1
  br i1 %38, label %43, label %39

39:                                               ; preds = %33
  %40 = load ptr, ptr %2, align 8, !tbaa !8
  %41 = call i32 @glfwGetKey(ptr noundef %40, i32 noundef 347)
  %42 = icmp eq i32 %41, 1
  br label %43

43:                                               ; preds = %39, %33
  %44 = phi i1 [ true, %33 ], [ %42, %39 ]
  call void @_ZN7ImGuiIO11AddKeyEventE8ImGuiKeyb(ptr noundef nonnull align 8 dereferenceable(2944) %35, i32 noundef 32768, i1 noundef zeroext %44)
  call void @llvm.lifetime.end.p0(i64 8, ptr %3) #9
  ret void
}