; Function Attrs: mustprogress uwtable
define internal fastcc void @_ZL33ImGui_ImplGlfw_UpdateKeyModifiersP10GLFWwindow(ptr noundef %0) unnamed_addr #1 {
  %2 = tail call noundef nonnull align 8 dereferenceable(2944) ptr @_ZN5ImGui5GetIOEv()
  %3 = tail call i32 @glfwGetKey(ptr noundef %0, i32 noundef 341)
  %4 = icmp eq i32 %3, 1
  br i1 %4, label %8, label %5

5:                                                ; preds = %1
  %6 = tail call i32 @glfwGetKey(ptr noundef %0, i32 noundef 345)
  %7 = icmp eq i32 %6, 1
  br label %8

8:                                                ; preds = %5, %1
  %9 = phi i1 [ true, %1 ], [ %7, %5 ]
  tail call void @_ZN7ImGuiIO11AddKeyEventE8ImGuiKeyb(ptr noundef nonnull align 8 dereferenceable(2944) %2, i32 noundef 4096, i1 noundef zeroext %9)
  %10 = tail call i32 @glfwGetKey(ptr noundef %0, i32 noundef 340)
  %11 = icmp eq i32 %10, 1
  br i1 %11, label %15, label %12

12:                                               ; preds = %8
  %13 = tail call i32 @glfwGetKey(ptr noundef %0, i32 noundef 344)
  %14 = icmp eq i32 %13, 1
  br label %15

15:                                               ; preds = %12, %8
  %16 = phi i1 [ true, %8 ], [ %14, %12 ]
  tail call void @_ZN7ImGuiIO11AddKeyEventE8ImGuiKeyb(ptr noundef nonnull align 8 dereferenceable(2944) %2, i32 noundef 8192, i1 noundef zeroext %16)
  %17 = tail call i32 @glfwGetKey(ptr noundef %0, i32 noundef 342)
  %18 = icmp eq i32 %17, 1
  br i1 %18, label %22, label %19

19:                                               ; preds = %15
  %20 = tail call i32 @glfwGetKey(ptr noundef %0, i32 noundef 346)
  %21 = icmp eq i32 %20, 1
  br label %22

22:                                               ; preds = %19, %15
  %23 = phi i1 [ true, %15 ], [ %21, %19 ]
  tail call void @_ZN7ImGuiIO11AddKeyEventE8ImGuiKeyb(ptr noundef nonnull align 8 dereferenceable(2944) %2, i32 noundef 16384, i1 noundef zeroext %23)
  %24 = tail call i32 @glfwGetKey(ptr noundef %0, i32 noundef 343)
  %25 = icmp eq i32 %24, 1
  br i1 %25, label %29, label %26

26:                                               ; preds = %22
  %27 = tail call i32 @glfwGetKey(ptr noundef %0, i32 noundef 347)
  %28 = icmp eq i32 %27, 1
  br label %29

29:                                               ; preds = %26, %22
  %30 = phi i1 [ true, %22 ], [ %28, %26 ]
  tail call void @_ZN7ImGuiIO11AddKeyEventE8ImGuiKeyb(ptr noundef nonnull align 8 dereferenceable(2944) %2, i32 noundef 32768, i1 noundef zeroext %30)
  ret void
}